Certificate:
    Data:
        Version: 3 (0x2)
        Serial Number:
            58:d6:6f:9c:f7:5e:f6:92:e0:01:9a:cd:84:77:d3:07
        Signature Algorithm: sha256WithRSAEncryption
        Issuer: CN=Easy-RSA CA
        Validity
            Not Before: Aug 14 07:56:13 2024 GMT
            Not After : Aug 12 07:56:13 2034 GMT
        Subject: CN=server
        Subject Public Key Info:
            Public Key Algorithm: rsaEncryption
                Public-Key: (2048 bit)
                Modulus:
                    00:d2:e1:16:ed:78:bf:f5:f4:92:64:78:ca:e0:e6:
                    c3:ec:77:26:ff:99:a5:51:c6:56:b9:6d:26:4a:ae:
                    35:fb:58:ca:0e:07:8f:41:73:fd:ee:43:e8:99:b7:
                    f1:03:5d:e5:55:c1:13:ad:a5:3d:99:68:1c:af:d0:
                    e3:78:d8:5a:cd:f7:57:ec:70:5d:ba:f8:45:ca:51:
                    f8:25:df:a5:54:88:9f:22:22:1b:b9:e1:05:75:5a:
                    6c:28:c0:fa:4a:70:53:e4:24:51:9e:a5:4a:da:58:
                    2d:e3:5e:01:23:01:6a:78:7a:e1:d9:f2:30:84:be:
                    cc:5b:71:b9:5c:e3:5e:09:de:7e:15:6b:fd:d6:bc:
                    63:36:c3:3c:7a:0e:39:28:d9:13:72:5c:31:38:ce:
                    01:ea:a0:fc:81:c9:29:d3:49:89:65:09:ff:3a:e9:
                    65:7d:70:ee:56:a9:d0:36:7d:a8:cb:79:59:3f:7f:
                    b0:db:06:62:e4:14:e2:64:0c:f3:ba:03:db:9c:c2:
                    f4:22:ee:8e:7a:b0:0b:1d:42:e7:cc:08:00:b3:83:
                    49:2e:d0:c2:88:d6:ca:f4:fe:69:27:ba:a0:e9:fa:
                    7e:87:1f:cc:8a:34:34:47:76:43:c2:fa:2e:cb:f6:
                    40:c7:c1:fa:87:07:84:6d:12:82:88:69:60:a5:1a:
                    1c:91
                Exponent: 65537 (0x10001)
        X509v3 extensions:
            X509v3 Basic Constraints: 
                CA:FALSE
            X509v3 Subject Key Identifier: 
                E8:9F:22:E9:E0:B2:2D:18:BA:DC:25:2C:2A:39:B8:80:16:C3:0B:80
            X509v3 Authority Key Identifier: 
                keyid:ED:33:BD:9D:CB:A0:F4:24:3B:5E:A9:10:00:7D:0D:E9:3A:F8:6E:A6
                DirName:/CN=Easy-RSA CA
                serial:02:24:1E:33:13:52:83:E9:CC:19:5A:89:7C:10:F2:E5:50:5A:09:A4
            X509v3 Extended Key Usage: 
                TLS Web Server Authentication
            X509v3 Key Usage: 
                Digital Signature, Key Encipherment
    Signature Algorithm: sha256WithRSAEncryption
    Signature Value:
        21:a1:05:a5:56:1a:a9:27:0f:7c:92:f5:82:8f:9a:02:bc:46:
        1e:57:88:c1:5a:63:d6:14:0a:b2:93:f8:40:24:36:94:89:e9:
        32:72:68:e4:79:e0:fa:94:ac:c1:85:6f:57:95:ab:36:aa:56:
        77:5e:c7:d7:20:7d:a7:cd:25:7a:6b:1b:54:4c:76:01:6d:ff:
        1a:f4:77:de:ba:15:d3:74:78:7a:bf:4a:d3:86:12:eb:5b:64:
        f1:fd:dd:3f:31:6d:28:57:44:d1:50:33:5c:11:8d:c4:e0:2d:
        2c:9f:9a:3d:e6:0b:98:ea:ae:b5:65:88:7f:ec:64:9d:93:7f:
        4c:17:43:96:64:69:c6:7a:13:57:83:29:c7:b9:d0:de:4a:b7:
        fb:c4:b2:45:e2:9b:44:18:71:a3:65:82:3a:46:82:e6:6f:ee:
        e1:50:5a:ca:f3:a5:60:d5:8d:c5:0a:57:6e:70:4d:f8:b9:07:
        e4:b9:b8:78:0b:24:fc:31:7f:75:5e:ce:79:dc:29:35:d0:8c:
        fd:2d:02:75:49:f8:ba:df:48:59:4f:84:98:19:58:f0:16:24:
        8d:fe:bd:f4:63:a6:9f:23:2e:95:00:07:e4:ef:62:74:35:a0:
        64:3e:fa:d1:b0:21:77:27:ba:9d:60:c3:ae:74:4e:15:e8:88:
        4f:ff:c3:86
-----BEGIN CERTIFICATE-----
MIIDVDCCAjygAwIBAgIQWNZvnPde9pLgAZrNhHfTBzANBgkqhkiG9w0BAQsFADAW
MRQwEgYDVQQDDAtFYXN5LVJTQSBDQTAeFw0yNDA4MTQwNzU2MTNaFw0zNDA4MTIw
NzU2MTNaMBExDzANBgNVBAMMBnNlcnZlcjCCASIwDQYJKoZIhvcNAQEBBQADggEP
ADCCAQoCggEBANLhFu14v/X0kmR4yuDmw+x3Jv+ZpVHGVrltJkquNftYyg4Hj0Fz
/e5D6Jm38QNd5VXBE62lPZloHK/Q43jYWs33V+xwXbr4RcpR+CXfpVSInyIiG7nh
BXVabCjA+kpwU+QkUZ6lStpYLeNeASMBanh64dnyMIS+zFtxuVzjXgnefhVr/da8
YzbDPHoOOSjZE3JcMTjOAeqg/IHJKdNJiWUJ/zrpZX1w7lap0DZ9qMt5WT9/sNsG
YuQU4mQM87oD25zC9CLujnqwCx1C58wIALODSS7QwojWyvT+aSe6oOn6focfzIo0
NEd2Q8L6Lsv2QMfB+ocHhG0SgohpYKUaHJECAwEAAaOBojCBnzAJBgNVHRMEAjAA
MB0GA1UdDgQWBBTonyLp4LItGLrcJSwqObiAFsMLgDBRBgNVHSMESjBIgBTtM72d
y6D0JDteqRAAfQ3pOvhupqEapBgwFjEUMBIGA1UEAwwLRWFzeS1SU0EgQ0GCFAIk
HjMTUoPpzBlaiXwQ8uVQWgmkMBMGA1UdJQQMMAoGCCsGAQUFBwMBMAsGA1UdDwQE
AwIFoDANBgkqhkiG9w0BAQsFAAOCAQEAIaEFpVYaqScPfJL1go+aArxGHleIwVpj
1hQKspP4QCQ2lInpMnJo5Hng+pSswYVvV5WrNqpWd17H1yB9p80lemsbVEx2AW3/
GvR33roV03R4er9K04YS61tk8f3dPzFtKFdE0VAzXBGNxOAtLJ+aPeYLmOqutWWI
f+xknZN/TBdDlmRpxnoTV4Mpx7nQ3kq3+8SyReKbRBhxo2WCOkaC5m/u4VBayvOl
YNWNxQpXbnBN+LkH5Lm4eAsk/DF/dV7OedwpNdCM/S0CdUn4ut9IWU+EmBlY8BYk
jf699GOmnyMulQAH5O9idDWgZD760bAhdye6nWDDrnROFeiIT//Dhg==
-----END CERTIFICATE-----
